Certificate Request:
    Data:
        Version: 1 (0x0)
        Subject: C = CN, ST = Beijing, L = Beijing, O = TX, OU = YL, CN = localhost
        Subject Public Key Info:
            Public Key Algorithm: rsaEncryption
                RSA Public-Key: (4096 bit)
                Modulus:
                    00:9c:c7:a5:9b:d4:b3:69:26:42:b7:a4:21:6c:b4:
                    af:d8:a9:bd:24:66:bf:97:81:0f:e7:3a:db:04:82:
                    1b:87:fb:77:c4:66:cc:f7:ca:55:2b:76:9e:b2:eb:
                    a0:23:ac:4f:15:cd:b2:27:0b:ec:b6:f6:69:6f:12:
                    df:6d:8b:c7:4d:c4:7f:be:90:a8:03:c8:22:c4:5d:
                    64:8b:c4:49:c8:a3:4b:4a:9f:c5:37:55:c6:2b:fd:
                    ad:03:12:1a:2c:fc:04:ed:b6:d9:10:4a:b2:43:6e:
                    24:9e:4b:78:c8:43:19:81:90:be:0e:9d:9d:0c:b8:
                    6d:7e:6e:ae:e0:8a:79:60:58:17:98:d7:49:37:aa:
                    4f:5f:9a:69:a9:9e:44:4f:67:18:3a:91:95:57:ed:
                    8d:6d:88:0f:a3:3f:0e:50:f3:51:8e:95:f3:93:ea:
                    b9:4f:99:bb:d3:e2:10:4c:3c:23:02:47:27:92:1c:
                    fe:79:1c:7b:e0:a1:7b:ba:c8:c2:07:66:a5:51:e7:
                    87:c8:a9:ba:58:19:9d:44:60:06:dd:dc:13:4e:d7:
                    98:ad:fe:8f:10:5f:53:4f:12:bb:4b:86:49:74:75:
                    4f:32:e1:a8:82:3e:f4:2d:14:07:60:fa:3c:ef:98:
                    ec:cb:81:ea:28:04:a7:7f:dd:b5:f8:46:cf:dc:ff:
                    ee:18:12:11:ab:6d:ad:2b:36:e5:f9:52:39:42:6b:
                    99:d5:82:bc:a5:eb:e8:e1:77:2f:8f:28:15:5f:95:
                    c8:3e:22:54:d1:52:7b:c3:89:63:ac:d9:6c:d2:48:
                    c5:28:40:8c:3e:41:5f:da:2f:2a:53:61:f6:0f:1d:
                    26:70:29:55:e8:c4:66:30:35:c2:fd:fe:9f:cc:0a:
                    30:f2:0d:5f:5c:fb:5b:fc:0d:42:8e:d5:22:58:9e:
                    c0:23:4b:b0:da:69:46:9e:62:51:4f:6f:05:5c:d7:
                    cb:09:7e:44:a2:8a:77:a2:36:c6:5b:1a:e2:7d:93:
                    aa:67:eb:93:90:db:6c:30:30:6a:65:84:46:d0:c2:
                    a5:2f:99:bc:2f:a5:c0:8f:8d:c6:72:67:af:b8:9e:
                    57:9c:4b:21:b4:38:c3:9f:61:c6:f7:26:9f:67:49:
                    09:ba:c9:44:66:74:38:bc:82:27:40:3f:c7:c1:f9:
                    f0:a2:d2:1b:85:5f:a8:ce:86:ae:a0:9a:6a:cc:5c:
                    ee:e9:25:eb:36:80:00:0b:11:da:69:8d:7b:4e:4a:
                    2d:03:e7:6f:32:57:0b:39:4e:dd:b5:50:1a:f0:3b:
                    29:af:94:39:6f:25:11:e4:65:15:cd:d6:e9:0b:8b:
                    ea:85:7d:39:57:ee:0a:97:ff:a1:a8:e8:c8:4f:63:
                    c7:4e:33
                Exponent: 65537 (0x10001)
        Attributes:
            a0:00
    Signature Algorithm: sha256WithRSAEncryption
         80:2c:74:04:5d:c5:a9:41:e9:b2:b2:38:6c:3e:56:60:12:15:
         8a:b8:cc:aa:0d:b6:6d:b5:80:de:a9:22:42:30:34:63:8d:99:
         1e:cd:57:48:f0:bd:5f:ba:db:64:83:9a:6a:53:6e:2b:4b:e3:
         25:75:25:fe:2d:3a:fe:d7:d7:bb:81:a2:c8:c9:59:eb:06:3e:
         00:f1:02:1b:1a:01:2a:a2:d0:25:09:50:a1:6f:45:9b:21:ca:
         f3:fe:ed:3d:0f:dd:8c:8f:6a:19:56:26:1a:93:55:4c:b7:21:
         37:2b:54:b0:39:60:a0:60:15:1b:c5:05:dd:be:76:97:b2:7e:
         d3:3b:4c:2d:82:c5:5e:f9:69:62:f2:06:99:98:5c:da:7e:fd:
         49:b6:f9:3f:7b:70:1e:50:65:d1:00:03:b8:66:35:81:e9:27:
         c1:a6:ea:d5:fd:0f:59:bc:c6:16:7c:ac:16:72:e7:24:c9:48:
         49:7a:36:e7:c2:c0:ec:2e:a8:6f:97:24:21:72:4f:cc:ef:07:
         cc:62:01:c5:7a:f2:48:9b:6e:21:6e:0b:af:47:95:e3:d4:3a:
         65:15:32:9f:4c:d4:f7:a1:df:73:ec:11:b6:ae:cd:cc:fb:9a:
         67:b6:f3:52:0d:52:b3:da:69:1d:81:82:25:6e:e1:49:e0:83:
         94:b4:2c:85:54:f5:f1:a8:16:7d:cb:19:7f:53:5a:c6:94:b3:
         eb:df:b9:2e:40:7a:7b:9c:62:36:dc:a8:97:38:ff:e9:b3:f5:
         0a:aa:14:9f:39:da:2e:33:6f:b3:99:4a:e8:60:7c:68:d7:83:
         d9:dc:70:fd:f5:54:05:18:71:db:3f:6e:ba:12:bc:9f:75:3b:
         61:39:cb:e3:99:f3:82:be:00:ee:20:cd:8b:3d:53:55:be:2d:
         b2:c3:cb:a4:46:a6:f3:89:d1:1c:60:3c:54:59:b6:c2:25:b0:
         e8:94:9a:ab:82:93:38:c0:e8:22:53:2c:ef:76:0a:61:bf:25:
         5f:bf:80:6d:20:81:6f:e0:6a:cc:b7:48:1a:bd:33:3d:99:62:
         db:1c:79:55:b1:50:0d:63:65:4a:67:91:54:0e:36:44:50:03:
         34:5c:02:a2:6d:06:a9:c7:4d:21:9a:d2:ae:40:85:47:69:d2:
         04:ac:b7:31:01:89:4d:79:7e:a0:0f:be:07:61:59:b6:e2:e6:
         9e:9d:04:67:a9:f0:fd:6f:9b:7c:3b:a8:0d:ce:e1:23:a5:c6:
         0b:8a:7f:cb:18:f0:2d:96:98:ef:25:a8:d1:62:f8:0d:33:41:
         e1:fa:25:8b:6a:e8:91:13:e2:c2:c7:7e:3b:42:60:aa:cf:c6:
         a0:26:88:d6:30:0b:b8:e4
-----BEGIN CERTIFICATE REQUEST-----
MIIEpDCCAowCAQAwXzELMAkGA1UEBhMCQ04xEDAOBgNVBAgMB0JlaWppbmcxEDAO
BgNVBAcMB0JlaWppbmcxCzAJBgNVBAoMAlRYMQswCQYDVQQLDAJZTDESMBAGA1UE
AwwJbG9jYWxob3N0MIICIjANBgkqhkiG9w0BAQEFAAOCAg8AMIICCgKCAgEAnMel
m9SzaSZCt6QhbLSv2Km9JGa/l4EP5zrbBIIbh/t3xGbM98pVK3aesuugI6xPFc2y
JwvstvZpbxLfbYvHTcR/vpCoA8gixF1ki8RJyKNLSp/FN1XGK/2tAxIaLPwE7bbZ
EEqyQ24knkt4yEMZgZC+Dp2dDLhtfm6u4Ip5YFgXmNdJN6pPX5ppqZ5ET2cYOpGV
V+2NbYgPoz8OUPNRjpXzk+q5T5m70+IQTDwjAkcnkhz+eRx74KF7usjCB2alUeeH
yKm6WBmdRGAG3dwTTteYrf6PEF9TTxK7S4ZJdHVPMuGogj70LRQHYPo875jsy4Hq
KASnf921+EbP3P/uGBIRq22tKzbl+VI5QmuZ1YK8pevo4XcvjygVX5XIPiJU0VJ7
w4ljrNls0kjFKECMPkFf2i8qU2H2Dx0mcClV6MRmMDXC/f6fzAow8g1fXPtb/A1C
jtUiWJ7AI0uw2mlGnmJRT28FXNfLCX5Eoop3ojbGWxrifZOqZ+uTkNtsMDBqZYRG
0MKlL5m8L6XAj43GcmevuJ5XnEshtDjDn2HG9yafZ0kJuslEZnQ4vIInQD/Hwfnw
otIbhV+ozoauoJpqzFzu6SXrNoAACxHaaY17TkotA+dvMlcLOU7dtVAa8Dspr5Q5
byUR5GUVzdbpC4vqhX05V+4Kl/+hqOjIT2PHTjMCAwEAAaAAMA0GCSqGSIb3DQEB
CwUAA4ICAQCALHQEXcWpQemysjhsPlZgEhWKuMyqDbZttYDeqSJCMDRjjZkezVdI
8L1futtkg5pqU24rS+MldSX+LTr+19e7gaLIyVnrBj4A8QIbGgEqotAlCVChb0Wb
Icrz/u09D92Mj2oZViYak1VMtyE3K1SwOWCgYBUbxQXdvnaXsn7TO0wtgsVe+Wli
8gaZmFzafv1Jtvk/e3AeUGXRAAO4ZjWB6SfBpurV/Q9ZvMYWfKwWcuckyUhJejbn
wsDsLqhvlyQhck/M7wfMYgHFevJIm24hbguvR5Xj1DplFTKfTNT3od9z7BG2rs3M
+5pntvNSDVKz2mkdgYIlbuFJ4IOUtCyFVPXxqBZ9yxl/U1rGlLPr37kuQHp7nGI2
3KiXOP/ps/UKqhSfOdouM2+zmUroYHxo14PZ3HD99VQFGHHbP266EryfdTthOcvj
mfOCvgDuIM2LPVNVvi2yw8ukRqbzidEcYDxUWbbCJbDolJqrgpM4wOgiUyzvdgph
vyVfv4BtIIFv4GrMt0gavTM9mWLbHHlVsVANY2VKZ5FUDjZEUAM0XAKibQapx00h
mtKuQIVHadIErLcxAYlNeX6gD74HYVm24uaenQRnqfD9b5t8O6gNzuEjpcYLin/L
GPAtlpjvJajRYvgNM0Hh+iWLauiRE+LCx347QmCqz8agJojWMAu45A==
-----END CERTIFICATE REQUEST-----
